target datalayout = "e-m:e-p270:32:32-p271:32:32-p272:64:64-i64:64-i128:128-f80:128-n8:16:32:64-S128"
target triple = "x86_64-pc-linux-gnu"

%class.rational = type { %class.mpq }
%class.mpq = type { %class.mpz, %class.mpz }
%class.mpz = type { i32, i8, ptr }
%"struct.opt::model_based_opt::var" = type { i32, %class.rational }
%"struct.opt::model_based_opt::row" = type { %class.vector, %class.rational, %class.rational, i32, %class.rational, i8, i32 }
%class.vector = type { ptr }
%"class.opt::model_based_opt" = type { %class.vector.0, %class.vector.1, %class.vector.2, %class.svector, %class.vector, %class.svector.4, %class.svector.4, %class.svector.4, %class.svector.4, %class.svector.4, %class.svector.4, %class.svector.4, %class.svector.4, %class.vector.6 }
%class.vector.0 = type { ptr }
%class.vector.1 = type { ptr }
%class.vector.2 = type { ptr }
%class.svector = type { %class.vector.3 }
%class.vector.3 = type { ptr }
%class.svector.4 = type { %class.vector.5 }
%class.vector.5 = type { ptr }
%class.vector.6 = type { ptr }

; Function Attrs: mustprogress nounwind uwtable
define linkonce_odr hidden noundef i32 @_ZNK6vectorIN3opt15model_based_opt3varELb1EjE4sizeEv(ptr noundef nonnull align 8 dereferenceable(8) %0) #7 comdat align 2 {
  %2 = alloca i32, align 4
  %3 = alloca ptr, align 8
  store ptr %0, ptr %3, align 8, !tbaa !18
  %4 = load ptr, ptr %3, align 8
  %5 = getelementptr inbounds nuw %class.vector, ptr %4, i32 0, i32 0
  %6 = load ptr, ptr %5, align 8, !tbaa !39
  %7 = icmp eq ptr %6, null
  br i1 %7, label %8, label %9

8:                                                ; preds = %1
  store i32 0, ptr %2, align 4
  br label %14

9:                                                ; preds = %1
  %10 = getelementptr inbounds nuw %class.vector, ptr %4, i32 0, i32 0
  %11 = load ptr, ptr %10, align 8, !tbaa !39
  %12 = getelementptr inbounds i32, ptr %11, i64 -1
  %13 = load i32, ptr %12, align 4, !tbaa !16
  store i32 %13, ptr %2, align 4
  br label %14

14:                                               ; preds = %9, %8
  %15 = load i32, ptr %2, align 4
  ret i32 %15
}

; Function Attrs: mustprogress uwtable
define linkonce_odr hidden noundef nonnull align 8 dereferenceable(8) ptr @_ZN6vectorIjLb0EjE9push_backERKj(ptr noundef nonnull align 8 dereferenceable(8) %0, ptr noundef nonnull align 4 dereferenceable(4) %1) #4 comdat align 2 {
  %3 = alloca ptr, align 8
  %4 = alloca ptr, align 8
  store ptr %0, ptr %3, align 8, !tbaa !99
  store ptr %1, ptr %4, align 8, !tbaa !96
  %5 = load ptr, ptr %3, align 8
  %6 = getelementptr inbounds nuw %class.vector.5, ptr %5, i32 0, i32 0
  %7 = load ptr, ptr %6, align 8, !tbaa !101
  %8 = icmp eq ptr %7, null
  br i1 %8, label %19, label %9

9:                                                ; preds = %2
  %10 = getelementptr inbounds nuw %class.vector.5, ptr %5, i32 0, i32 0
  %11 = load ptr, ptr %10, align 8, !tbaa !101
  %12 = getelementptr inbounds i32, ptr %11, i64 -1
  %13 = load i32, ptr %12, align 4, !tbaa !16
  %14 = getelementptr inbounds nuw %class.vector.5, ptr %5, i32 0, i32 0
  %15 = load ptr, ptr %14, align 8, !tbaa !101
  %16 = getelementptr inbounds i32, ptr %15, i64 -2
  %17 = load i32, ptr %16, align 4, !tbaa !16
  %18 = icmp eq i32 %13, %17
  br i1 %18, label %19, label %20

19:                                               ; preds = %9, %2
  call void @_ZN6vectorIjLb0EjE13expand_vectorEv(ptr noundef nonnull align 8 dereferenceable(8) %5)
  br label %20

20:                                               ; preds = %19, %9
  %21 = getelementptr inbounds nuw %class.vector.5, ptr %5, i32 0, i32 0
  %22 = load ptr, ptr %21, align 8, !tbaa !101
  %23 = getelementptr inbounds nuw %class.vector.5, ptr %5, i32 0, i32 0
  %24 = load ptr, ptr %23, align 8, !tbaa !101
  %25 = getelementptr inbounds i32, ptr %24, i64 -1
  %26 = load i32, ptr %25, align 4, !tbaa !16
  %27 = zext i32 %26 to i64
  %28 = getelementptr inbounds nuw i32, ptr %22, i64 %27
  %29 = load ptr, ptr %4, align 8, !tbaa !96
  %30 = load i32, ptr %29, align 4, !tbaa !16
  store i32 %30, ptr %28, align 4, !tbaa !16
  %31 = getelementptr inbounds nuw %class.vector.5, ptr %5, i32 0, i32 0
  %32 = load ptr, ptr %31, align 8, !tbaa !101
  %33 = getelementptr inbounds i32, ptr %32, i64 -1
  %34 = load i32, ptr %33, align 4, !tbaa !16
  %35 = add i32 %34, 1
  store i32 %35, ptr %33, align 4, !tbaa !16
  ret ptr %5
}

; Function Attrs: mustprogress nounwind uwtable
define linkonce_odr hidden noundef nonnull align 8 dereferenceable(8) ptr @_ZN6vectorI7svectorIjjELb1EjEixEj(ptr noundef nonnull align 8 dereferenceable(8) %0, i32 noundef %1) #7 comdat align 2 {
  %3 = alloca ptr, align 8
  %4 = alloca i32, align 4
  store ptr %0, ptr %3, align 8, !tbaa !72
  store i32 %1, ptr %4, align 4, !tbaa !16
  %5 = load ptr, ptr %3, align 8
  %6 = getelementptr inbounds nuw %class.vector.1, ptr %5, i32 0, i32 0
  %7 = load ptr, ptr %6, align 8, !tbaa !74
  %8 = load i32, ptr %4, align 4, !tbaa !16
  %9 = zext i32 %8 to i64
  %10 = getelementptr inbounds nuw %class.svector.4, ptr %7, i64 %9
  ret ptr %10
}

; Function Attrs: mustprogress uwtable
define linkonce_odr hidden noundef ptr @_ZNK6vectorIN3opt15model_based_opt3varELb1EjE3endEv(ptr noundef nonnull align 8 dereferenceable(8) %0) #4 comdat align 2 {
  %2 = alloca ptr, align 8
  store ptr %0, ptr %2, align 8, !tbaa !18
  %3 = load ptr, ptr %2, align 8
  %4 = getelementptr inbounds nuw %class.vector, ptr %3, i32 0, i32 0
  %5 = load ptr, ptr %4, align 8, !tbaa !39
  %6 = call noundef i32 @_ZNK6vectorIN3opt15model_based_opt3varELb1EjE4sizeEv(ptr noundef nonnull align 8 dereferenceable(8) %3)
  %7 = zext i32 %6 to i64
  %8 = getelementptr inbounds nuw %"struct.opt::model_based_opt::var", ptr %5, i64 %7
  ret ptr %8
}

; Function Attrs: mustprogress nounwind uwtable
define linkonce_odr hidden noundef ptr @_ZNK6vectorIN3opt15model_based_opt3varELb1EjE5beginEv(ptr noundef nonnull align 8 dereferenceable(8) %0) #7 comdat align 2 {
  %2 = alloca ptr, align 8
  store ptr %0, ptr %2, align 8, !tbaa !18
  %3 = load ptr, ptr %2, align 8
  %4 = getelementptr inbounds nuw %class.vector, ptr %3, i32 0, i32 0
  %5 = load ptr, ptr %4, align 8, !tbaa !39
  ret ptr %5
}

; Function Attrs: mustprogress nounwind uwtable
define linkonce_odr hidden noundef nonnull align 8 dereferenceable(120) ptr @_ZN6vectorIN3opt15model_based_opt3rowELb1EjEixEj(ptr noundef nonnull align 8 dereferenceable(8) %0, i32 noundef %1) #7 comdat align 2 {
  %3 = alloca ptr, align 8
  %4 = alloca i32, align 4
  store ptr %0, ptr %3, align 8, !tbaa !68
  store i32 %1, ptr %4, align 4, !tbaa !16
  %5 = load ptr, ptr %3, align 8
  %6 = getelementptr inbounds nuw %class.vector.0, ptr %5, i32 0, i32 0
  %7 = load ptr, ptr %6, align 8, !tbaa !70
  %8 = load i32, ptr %4, align 4, !tbaa !16
  %9 = zext i32 %8 to i64
  %10 = getelementptr inbounds nuw %"struct.opt::model_based_opt::row", ptr %7, i64 %9
  ret ptr %10
}

; Function Attrs: mustprogress uwtable
define hidden noundef i32 @_ZN3opt15model_based_opt8copy_rowEjj(ptr noundef nonnull align 8 dereferenceable(112) %0, i32 noundef %1, i32 noundef %2) #4 align 2 {
  %4 = alloca ptr, align 8
  %5 = alloca i32, align 4
  %6 = alloca i32, align 4
  %7 = alloca i32, align 4
  %8 = alloca ptr, align 8
  %9 = alloca ptr, align 8
  %10 = alloca ptr, align 8
  %11 = alloca ptr, align 8
  %12 = alloca ptr, align 8
  store ptr %0, ptr %4, align 8, !tbaa !66
  store i32 %1, ptr %5, align 4, !tbaa !16
  store i32 %2, ptr %6, align 4, !tbaa !16
  %13 = load ptr, ptr %4, align 8
  call void @llvm.lifetime.start.p0(i64 4, ptr %7) #3
  %14 = call noundef i32 @_ZN3opt15model_based_opt7new_rowEv(ptr noundef nonnull align 8 dereferenceable(112) %13)
  store i32 %14, ptr %7, align 4, !tbaa !16
  call void @llvm.lifetime.start.p0(i64 8, ptr %8) #3
  %15 = getelementptr inbounds nuw %"class.opt::model_based_opt", ptr %13, i32 0, i32 0
  %16 = load i32, ptr %5, align 4, !tbaa !16
  %17 = call noundef nonnull align 8 dereferenceable(120) ptr @_ZN6vectorIN3opt15model_based_opt3rowELb1EjEixEj(ptr noundef nonnull align 8 dereferenceable(8) %15, i32 noundef %16)
  store ptr %17, ptr %8, align 8, !tbaa !14
  %18 = load i32, ptr %7, align 4, !tbaa !16
  %19 = load ptr, ptr %8, align 8, !tbaa !14
  %20 = getelementptr inbounds nuw %"struct.opt::model_based_opt::row", ptr %19, i32 0, i32 0
  %21 = load ptr, ptr %8, align 8, !tbaa !14
  %22 = getelementptr inbounds nuw %"struct.opt::model_based_opt::row", ptr %21, i32 0, i32 1
  %23 = load ptr, ptr %8, align 8, !tbaa !14
  %24 = getelementptr inbounds nuw %"struct.opt::model_based_opt::row", ptr %23, i32 0, i32 2
  %25 = load ptr, ptr %8, align 8, !tbaa !14
  %26 = getelementptr inbounds nuw %"struct.opt::model_based_opt::row", ptr %25, i32 0, i32 3
  %27 = load i32, ptr %26, align 8, !tbaa !30
  call void @_ZN3opt15model_based_opt7set_rowEjRK6vectorINS0_3varELb1EjERK8rationalS8_NS_9ineq_typeE(ptr noundef nonnull align 8 dereferenceable(112) %13, i32 noundef %18, ptr noundef nonnull align 8 dereferenceable(8) %20, ptr noundef nonnull align 8 dereferenceable(32) %22, ptr noundef nonnull align 8 dereferenceable(32) %24, i32 noundef %27)
  call void @llvm.lifetime.start.p0(i64 8, ptr %9) #3
  %28 = load ptr, ptr %8, align 8, !tbaa !14
  %29 = getelementptr inbounds nuw %"struct.opt::model_based_opt::row", ptr %28, i32 0, i32 0
  store ptr %29, ptr %9, align 8, !tbaa !18
  call void @llvm.lifetime.start.p0(i64 8, ptr %10) #3
  %30 = load ptr, ptr %9, align 8, !tbaa !18
  %31 = call noundef ptr @_ZNK6vectorIN3opt15model_based_opt3varELb1EjE5beginEv(ptr noundef nonnull align 8 dereferenceable(8) %30)
  store ptr %31, ptr %10, align 8, !tbaa !20
  call void @llvm.lifetime.start.p0(i64 8, ptr %11) #3
  %32 = load ptr, ptr %9, align 8, !tbaa !18
  %33 = call noundef ptr @_ZNK6vectorIN3opt15model_based_opt3varELb1EjE3endEv(ptr noundef nonnull align 8 dereferenceable(8) %32)
  store ptr %33, ptr %11, align 8, !tbaa !20
  br label %34

34:                                               ; preds = %54, %3
  %35 = load ptr, ptr %10, align 8, !tbaa !20
  %36 = load ptr, ptr %11, align 8, !tbaa !20
  %37 = icmp ne ptr %35, %36
  br i1 %37, label %39, label %38

38:                                               ; preds = %34
  call void @llvm.lifetime.end.p0(i64 8, ptr %11) #3
  call void @llvm.lifetime.end.p0(i64 8, ptr %10) #3
  call void @llvm.lifetime.end.p0(i64 8, ptr %9) #3
  br label %57

39:                                               ; preds = %34
  call void @llvm.lifetime.start.p0(i64 8, ptr %12) #3
  %40 = load ptr, ptr %10, align 8, !tbaa !20
  store ptr %40, ptr %12, align 8, !tbaa !20
  %41 = load ptr, ptr %12, align 8, !tbaa !20
  %42 = getelementptr inbounds nuw %"struct.opt::model_based_opt::var", ptr %41, i32 0, i32 0
  %43 = load i32, ptr %42, align 8, !tbaa !22
  %44 = load i32, ptr %6, align 4, !tbaa !16
  %45 = icmp ne i32 %43, %44
  br i1 %45, label %46, label %53

46:                                               ; preds = %39
  %47 = getelementptr inbounds nuw %"class.opt::model_based_opt", ptr %13, i32 0, i32 1
  %48 = load ptr, ptr %12, align 8, !tbaa !20
  %49 = getelementptr inbounds nuw %"struct.opt::model_based_opt::var", ptr %48, i32 0, i32 0
  %50 = load i32, ptr %49, align 8, !tbaa !22
  %51 = call noundef nonnull align 8 dereferenceable(8) ptr @_ZN6vectorI7svectorIjjELb1EjEixEj(ptr noundef nonnull align 8 dereferenceable(8) %47, i32 noundef %50)
  %52 = call noundef nonnull align 8 dereferenceable(8) ptr @_ZN6vectorIjLb0EjE9push_backERKj(ptr noundef nonnull align 8 dereferenceable(8) %51, ptr noundef nonnull align 4 dereferenceable(4) %7)
  br label %53

53:                                               ; preds = %46, %39
  call void @llvm.lifetime.end.p0(i64 8, ptr %12) #3
  br label %54

54:                                               ; preds = %53
  %55 = load ptr, ptr %10, align 8, !tbaa !20
  %56 = getelementptr inbounds nuw %"struct.opt::model_based_opt::var", ptr %55, i32 1
  store ptr %56, ptr %10, align 8, !tbaa !20
  br label %34

57:                                               ; preds = %38
  %58 = load i32, ptr %7, align 4, !tbaa !16
  call void @llvm.lifetime.end.p0(i64 8, ptr %8) #3
  call void @llvm.lifetime.end.p0(i64 4, ptr %7) #3
  ret i32 %58
}