; Function Attrs: mustprogress uwtable
define hidden noundef i32 @_ZN3opt15model_based_opt8copy_rowEjj(ptr noundef nonnull align 8 dereferenceable(112) %0, i32 noundef %1, i32 noundef %2) local_unnamed_addr #3 align 2 {
  %4 = tail call noundef i32 @_ZN3opt15model_based_opt7new_rowEv(ptr noundef nonnull align 8 dereferenceable(112) %0)
  %5 = load ptr, ptr %0, align 8, !tbaa !53
  %6 = zext i32 %1 to i64
  %7 = getelementptr inbounds nuw %"struct.opt::model_based_opt::row", ptr %5, i64 %6
  %8 = getelementptr inbounds nuw i8, ptr %7, i64 8
  %9 = getelementptr inbounds nuw i8, ptr %7, i64 40
  %10 = getelementptr inbounds nuw i8, ptr %7, i64 72
  %11 = load i32, ptr %10, align 8, !tbaa !34
  tail call void @_ZN3opt15model_based_opt7set_rowEjRK6vectorINS0_3varELb1EjERK8rationalS8_NS_9ineq_typeE(ptr noundef nonnull align 8 dereferenceable(112) %0, i32 noundef %4, ptr noundef nonnull align 8 dereferenceable(8) %7, ptr noundef nonnull align 8 dereferenceable(32) %8, ptr noundef nonnull align 8 dereferenceable(32) %9, i32 noundef %11)
  %12 = load ptr, ptr %7, align 8, !tbaa !16
  %13 = icmp eq ptr %12, null
  br i1 %13, label %._crit_edge, label %_ZNK6vectorIN3opt15model_based_opt3varELb1EjE3endEv.exit

_ZNK6vectorIN3opt15model_based_opt3varELb1EjE3endEv.exit: ; preds = %3
  %14 = getelementptr inbounds i8, ptr %12, i64 -4
  %15 = load i32, ptr %14, align 4, !tbaa !19
  %16 = zext i32 %15 to i64
  %17 = getelementptr inbounds nuw %"struct.opt::model_based_opt::var", ptr %12, i64 %16
  %.not19 = icmp eq i32 %15, 0
  br i1 %.not19, label %._crit_edge, label %.lr.ph

.lr.ph:                                           ; preds = %_ZNK6vectorIN3opt15model_based_opt3varELb1EjE3endEv.exit
  %18 = getelementptr inbounds nuw i8, ptr %0, i64 8
  br label %19

._crit_edge:                                      ; preds = %40, %3, %_ZNK6vectorIN3opt15model_based_opt3varELb1EjE3endEv.exit
  ret i32 %4

19:                                               ; preds = %.lr.ph, %40
  %.020 = phi ptr [ %12, %.lr.ph ], [ %41, %40 ]
  %20 = load i32, ptr %.020, align 8, !tbaa !27
  %.not16 = icmp eq i32 %20, %2
  br i1 %.not16, label %40, label %21

21:                                               ; preds = %19
  %22 = load ptr, ptr %18, align 8, !tbaa !74
  %23 = zext i32 %20 to i64
  %24 = getelementptr inbounds nuw %class.svector.4, ptr %22, i64 %23
  %25 = load ptr, ptr %24, align 8, !tbaa !77
  %26 = icmp eq ptr %25, null
  br i1 %26, label %33, label %27

27:                                               ; preds = %21
  %28 = getelementptr inbounds i8, ptr %25, i64 -4
  %29 = load i32, ptr %28, align 4, !tbaa !19
  %30 = getelementptr inbounds i8, ptr %25, i64 -8
  %31 = load i32, ptr %30, align 4, !tbaa !19
  %32 = icmp eq i32 %29, %31
  br i1 %32, label %33, label %_ZN6vectorIjLb0EjE9push_backERKj.exit

33:                                               ; preds = %27, %21
  tail call void @_ZN6vectorIjLb0EjE13expand_vectorEv(ptr noundef nonnull align 8 dereferenceable(8) %24)
  %.pre.i = load ptr, ptr %24, align 8, !tbaa !77
  %.phi.trans.insert.i = getelementptr inbounds i8, ptr %.pre.i, i64 -4
  %.pre2.i = load i32, ptr %.phi.trans.insert.i, align 4, !tbaa !19
  br label %_ZN6vectorIjLb0EjE9push_backERKj.exit

_ZN6vectorIjLb0EjE9push_backERKj.exit:            ; preds = %27, %33
  %34 = phi i32 [ %.pre2.i, %33 ], [ %29, %27 ]
  %35 = phi ptr [ %.pre.i, %33 ], [ %25, %27 ]
  %36 = getelementptr inbounds i8, ptr %35, i64 -4
  %37 = zext i32 %34 to i64
  %38 = getelementptr inbounds nuw i32, ptr %35, i64 %37
  store i32 %4, ptr %38, align 4, !tbaa !19
  %39 = add i32 %34, 1
  store i32 %39, ptr %36, align 4, !tbaa !19
  br label %40

40:                                               ; preds = %_ZN6vectorIjLb0EjE9push_backERKj.exit, %19
  %41 = getelementptr inbounds nuw i8, ptr %.020, i64 40
  %.not = icmp eq ptr %41, %17
  br i1 %.not, label %._crit_edge, label %19
}